; Function Attrs: mustprogress nounwind uwtable
define noundef i32 @_Z22tMPI_Thread_mutex_lockP19tMPI_Thread_mutex_t(ptr nocapture noundef %0) local_unnamed_addr #1 {
  %2 = load i32, ptr %0, align 8
  %3 = icmp eq i32 %2, 0
  br i1 %3, label %4, label %_ZL27tMPI_Thread_mutex_init_onceP19tMPI_Thread_mutex_t.exit.thread8

4:                                                ; preds = %1
  %5 = tail call i32 @pthread_mutex_lock(ptr noundef nonnull @_ZL10mutex_init) #13
  %.not.i = icmp eq i32 %5, 0
  br i1 %.not.i, label %6, label %_ZL27tMPI_Thread_mutex_init_onceP19tMPI_Thread_mutex_t.exit.thread

6:                                                ; preds = %4
  %7 = getelementptr inbounds i8, ptr %0, i64 64
  %8 = load ptr, ptr %7, align 8
  %9 = icmp eq ptr %8, null
  br i1 %9, label %10, label %_ZL27tMPI_Thread_mutex_init_onceP19tMPI_Thread_mutex_t.exit

10:                                               ; preds = %6
  %11 = tail call noalias dereferenceable_or_null(40) ptr @malloc(i64 noundef 40) #14
  store ptr %11, ptr %7, align 8
  %12 = icmp eq ptr %11, null
  br i1 %12, label %15, label %13

13:                                               ; preds = %10
  %14 = tail call i32 @pthread_mutex_init(ptr noundef nonnull %11, ptr noundef null) #13
  %.not14.i = icmp eq i32 %14, 0
  br i1 %.not14.i, label %_ZL27tMPI_Thread_mutex_init_onceP19tMPI_Thread_mutex_t.exit, label %15

15:                                               ; preds = %13, %10
  %.1.i = phi i32 [ %14, %13 ], [ 12, %10 ]
  %16 = tail call i32 @pthread_mutex_unlock(ptr noundef nonnull @_ZL10mutex_init) #13
  br label %_ZL27tMPI_Thread_mutex_init_onceP19tMPI_Thread_mutex_t.exit.thread

_ZL27tMPI_Thread_mutex_init_onceP19tMPI_Thread_mutex_t.exit: ; preds = %6, %13
  %17 = tail call i32 @pthread_mutex_unlock(ptr noundef nonnull @_ZL10mutex_init) #13
  %.not = icmp eq i32 %17, 0
  br i1 %.not, label %_ZL27tMPI_Thread_mutex_init_onceP19tMPI_Thread_mutex_t.exit.thread8, label %_ZL27tMPI_Thread_mutex_init_onceP19tMPI_Thread_mutex_t.exit.thread

_ZL27tMPI_Thread_mutex_init_onceP19tMPI_Thread_mutex_t.exit.thread8: ; preds = %1, %_ZL27tMPI_Thread_mutex_init_onceP19tMPI_Thread_mutex_t.exit
  %18 = getelementptr inbounds i8, ptr %0, i64 64
  %19 = load ptr, ptr %18, align 8
  %20 = tail call i32 @pthread_mutex_lock(ptr noundef %19) #13
  br label %_ZL27tMPI_Thread_mutex_init_onceP19tMPI_Thread_mutex_t.exit.thread

_ZL27tMPI_Thread_mutex_init_onceP19tMPI_Thread_mutex_t.exit.thread: ; preds = %4, %15, %_ZL27tMPI_Thread_mutex_init_onceP19tMPI_Thread_mutex_t.exit, %_ZL27tMPI_Thread_mutex_init_onceP19tMPI_Thread_mutex_t.exit.thread8
  %.0 = phi i32 [ %20, %_ZL27tMPI_Thread_mutex_init_onceP19tMPI_Thread_mutex_t.exit.thread8 ], [ %17, %_ZL27tMPI_Thread_mutex_init_onceP19tMPI_Thread_mutex_t.exit ], [ %5, %4 ], [ %.1.i, %15 ]
  ret i32 %.0
}